; Function Attrs: mustprogress uwtable
define hidden void @_ZN3smt17theory_array_base13push_scope_ehEv(ptr noundef nonnull align 8 dereferenceable(249) %this) unnamed_addr #3 align 2 {
entry:
  %m_scopes = getelementptr inbounds i8, ptr %this, i64 168
  %m_sorts_trail = getelementptr inbounds i8, ptr %this, i64 112
  %0 = load ptr, ptr %m_sorts_trail, align 8
  %cmp.i = icmp eq ptr %0, null
  br i1 %cmp.i, label %_ZNK6vectorIP4sortLb0EjE4sizeEv.exit, label %if.end.i

if.end.i:                                         ; preds = %entry
  %arrayidx.i = getelementptr inbounds i8, ptr %0, i64 -4
  %1 = load i32, ptr %arrayidx.i, align 4
  br label %_ZNK6vectorIP4sortLb0EjE4sizeEv.exit

_ZNK6vectorIP4sortLb0EjE4sizeEv.exit:             ; preds = %entry, %if.end.i
  %retval.0.i = phi i32 [ %1, %if.end.i ], [ 0, %entry ]
  %2 = load ptr, ptr %m_scopes, align 8
  %cmp.i1 = icmp eq ptr %2, null
  br i1 %cmp.i1, label %if.then.i, label %lor.lhs.false.i

lor.lhs.false.i:                                  ; preds = %_ZNK6vectorIP4sortLb0EjE4sizeEv.exit
  %arrayidx.i2 = getelementptr inbounds i8, ptr %2, i64 -4
  %3 = load i32, ptr %arrayidx.i2, align 4
  %arrayidx4.i = getelementptr inbounds i8, ptr %2, i64 -8
  %4 = load i32, ptr %arrayidx4.i, align 4
  %cmp5.i = icmp eq i32 %3, %4
  br i1 %cmp5.i, label %if.then.i, label %_ZN6vectorIN3smt17theory_array_base5scopeELb0EjE9push_backEOS2_.exit

if.then.i:                                        ; preds = %lor.lhs.false.i, %_ZNK6vectorIP4sortLb0EjE4sizeEv.exit
  tail call void @_ZN6vectorIN3smt17theory_array_base5scopeELb0EjE13expand_vectorEv(ptr noundef nonnull align 8 dereferenceable(8) %m_scopes)
  %.pre.i = load ptr, ptr %m_scopes, align 8
  %arrayidx8.phi.trans.insert.i = getelementptr inbounds i8, ptr %.pre.i, i64 -4
  %.pre1.i = load i32, ptr %arrayidx8.phi.trans.insert.i, align 4
  br label %_ZN6vectorIN3smt17theory_array_base5scopeELb0EjE9push_backEOS2_.exit

_ZN6vectorIN3smt17theory_array_base5scopeELb0EjE9push_backEOS2_.exit: ; preds = %lor.lhs.false.i, %if.then.i
  %5 = phi i32 [ %.pre1.i, %if.then.i ], [ %3, %lor.lhs.false.i ]
  %6 = phi ptr [ %.pre.i, %if.then.i ], [ %2, %lor.lhs.false.i ]
  %idx.ext.i = zext i32 %5 to i64
  %add.ptr.i = getelementptr inbounds %"struct.smt::theory_array_base::scope", ptr %6, i64 %idx.ext.i
  store i32 %retval.0.i, ptr %add.ptr.i, align 4
  %7 = load ptr, ptr %m_scopes, align 8
  %arrayidx10.i = getelementptr inbounds i8, ptr %7, i64 -4
  %8 = load i32, ptr %arrayidx10.i, align 4
  %inc.i = add i32 %8, 1
  store i32 %inc.i, ptr %arrayidx10.i, align 4
  tail call void @_ZN3smt6theory13push_scope_ehEv(ptr noundef nonnull align 8 dereferenceable(53) %this)
  ret void
}